target datalayout = "e-m:e-p270:32:32-p271:32:32-p272:64:64-i64:64-i128:128-f80:128-n8:16:32:64-S128"
target triple = "x86_64-pc-linux-gnu"

%struct.mbedtls_ecp_group = type { i32, %struct.mbedtls_mpi, %struct.mbedtls_mpi, %struct.mbedtls_mpi, %struct.mbedtls_ecp_point, %struct.mbedtls_mpi, i64, i64, i32, ptr, ptr, ptr, ptr, ptr, i64 }
%struct.mbedtls_ecp_point = type { %struct.mbedtls_mpi, %struct.mbedtls_mpi, %struct.mbedtls_mpi }
%struct.mbedtls_mpi = type { ptr, i16, i16 }
%struct.mbedtls_ecp_keypair = type { %struct.mbedtls_ecp_group, %struct.mbedtls_mpi, %struct.mbedtls_ecp_point }

; Function Attrs: nounwind uwtable
define hidden i32 @mbedtls_ecp_mul_restartable(ptr noundef %0, ptr noundef %1, ptr noundef %2, ptr noundef %3, ptr noundef %4, ptr noundef %5, ptr noundef %6) #0 {
  %8 = alloca i32, align 4
  %9 = alloca ptr, align 8
  %10 = alloca ptr, align 8
  %11 = alloca ptr, align 8
  %12 = alloca ptr, align 8
  %13 = alloca ptr, align 8
  %14 = alloca ptr, align 8
  %15 = alloca ptr, align 8
  store ptr %0, ptr %9, align 8, !tbaa !25
  store ptr %1, ptr %10, align 8, !tbaa !34
  store ptr %2, ptr %11, align 8, !tbaa !50
  store ptr %3, ptr %12, align 8, !tbaa !34
  store ptr %4, ptr %13, align 8, !tbaa !55
  store ptr %5, ptr %14, align 8, !tbaa !55
  store ptr %6, ptr %15, align 8, !tbaa !55
  %16 = load ptr, ptr %13, align 8, !tbaa !55
  %17 = icmp eq ptr %16, null
  br i1 %17, label %18, label %19

18:                                               ; preds = %7
  store i32 -20352, ptr %8, align 4
  br label %28

19:                                               ; preds = %7
  %20 = load ptr, ptr %9, align 8, !tbaa !25
  %21 = load ptr, ptr %10, align 8, !tbaa !34
  %22 = load ptr, ptr %11, align 8, !tbaa !50
  %23 = load ptr, ptr %12, align 8, !tbaa !34
  %24 = load ptr, ptr %13, align 8, !tbaa !55
  %25 = load ptr, ptr %14, align 8, !tbaa !55
  %26 = load ptr, ptr %15, align 8, !tbaa !55
  %27 = call i32 @ecp_mul_restartable_internal(ptr noundef %20, ptr noundef %21, ptr noundef %22, ptr noundef %23, ptr noundef %24, ptr noundef %25, ptr noundef %26)
  store i32 %27, ptr %8, align 4
  br label %28

28:                                               ; preds = %19, %18
  %29 = load i32, ptr %8, align 4
  ret i32 %29
}

; Function Attrs: nounwind uwtable
define hidden i32 @mbedtls_ecp_mul(ptr noundef %0, ptr noundef %1, ptr noundef %2, ptr noundef %3, ptr noundef %4, ptr noundef %5) #0 {
  %7 = alloca ptr, align 8
  %8 = alloca ptr, align 8
  %9 = alloca ptr, align 8
  %10 = alloca ptr, align 8
  %11 = alloca ptr, align 8
  %12 = alloca ptr, align 8
  store ptr %0, ptr %7, align 8, !tbaa !25
  store ptr %1, ptr %8, align 8, !tbaa !34
  store ptr %2, ptr %9, align 8, !tbaa !50
  store ptr %3, ptr %10, align 8, !tbaa !34
  store ptr %4, ptr %11, align 8, !tbaa !55
  store ptr %5, ptr %12, align 8, !tbaa !55
  %13 = load ptr, ptr %7, align 8, !tbaa !25
  %14 = load ptr, ptr %8, align 8, !tbaa !34
  %15 = load ptr, ptr %9, align 8, !tbaa !50
  %16 = load ptr, ptr %10, align 8, !tbaa !34
  %17 = load ptr, ptr %11, align 8, !tbaa !55
  %18 = load ptr, ptr %12, align 8, !tbaa !55
  %19 = call i32 @mbedtls_ecp_mul_restartable(ptr noundef %13, ptr noundef %14, ptr noundef %15, ptr noundef %16, ptr noundef %17, ptr noundef %18, ptr noundef null)
  ret i32 %19
}

; Function Attrs: nounwind uwtable
define hidden i32 @mbedtls_ecp_group_copy(ptr noundef %0, ptr noundef %1) #0 {
  %3 = alloca ptr, align 8
  %4 = alloca ptr, align 8
  store ptr %0, ptr %3, align 8, !tbaa !25
  store ptr %1, ptr %4, align 8, !tbaa !25
  %5 = load ptr, ptr %3, align 8, !tbaa !25
  %6 = load ptr, ptr %4, align 8, !tbaa !25
  %7 = getelementptr inbounds nuw %struct.mbedtls_ecp_group, ptr %6, i32 0, i32 0
  %8 = load i32, ptr %7, align 8, !tbaa !35
  %9 = call i32 @mbedtls_ecp_group_load(ptr noundef %5, i32 noundef %8)
  ret i32 %9
}

; Function Attrs: nounwind uwtable
define hidden i32 @mbedtls_ecp_check_pub_priv(ptr noundef %0, ptr noundef %1, ptr noundef %2, ptr noundef %3) #0 {
  %5 = alloca i32, align 4
  %6 = alloca ptr, align 8
  %7 = alloca ptr, align 8
  %8 = alloca ptr, align 8
  %9 = alloca ptr, align 8
  %10 = alloca i32, align 4
  %11 = alloca %struct.mbedtls_ecp_point, align 8
  %12 = alloca %struct.mbedtls_ecp_group, align 8
  %13 = alloca i32, align 4
  store ptr %0, ptr %6, align 8, !tbaa !45
  store ptr %1, ptr %7, align 8, !tbaa !45
  store ptr %2, ptr %8, align 8, !tbaa !55
  store ptr %3, ptr %9, align 8, !tbaa !55
  call void @llvm.lifetime.start.p0(i64 4, ptr %10) #11
  store i32 -110, ptr %10, align 4, !tbaa !3
  call void @llvm.lifetime.start.p0(i64 48, ptr %11) #11
  call void @llvm.lifetime.start.p0(i64 192, ptr %12) #11
  %14 = load ptr, ptr %6, align 8, !tbaa !45
  %15 = getelementptr inbounds nuw %struct.mbedtls_ecp_keypair, ptr %14, i32 0, i32 0
  %16 = getelementptr inbounds nuw %struct.mbedtls_ecp_group, ptr %15, i32 0, i32 0
  %17 = load i32, ptr %16, align 8, !tbaa !59
  %18 = icmp eq i32 %17, 0
  br i1 %18, label %56, label %19

19:                                               ; preds = %4
  %20 = load ptr, ptr %6, align 8, !tbaa !45
  %21 = getelementptr inbounds nuw %struct.mbedtls_ecp_keypair, ptr %20, i32 0, i32 0
  %22 = getelementptr inbounds nuw %struct.mbedtls_ecp_group, ptr %21, i32 0, i32 0
  %23 = load i32, ptr %22, align 8, !tbaa !59
  %24 = load ptr, ptr %7, align 8, !tbaa !45
  %25 = getelementptr inbounds nuw %struct.mbedtls_ecp_keypair, ptr %24, i32 0, i32 0
  %26 = getelementptr inbounds nuw %struct.mbedtls_ecp_group, ptr %25, i32 0, i32 0
  %27 = load i32, ptr %26, align 8, !tbaa !59
  %28 = icmp ne i32 %23, %27
  br i1 %28, label %56, label %29

29:                                               ; preds = %19
  %30 = load ptr, ptr %6, align 8, !tbaa !45
  %31 = getelementptr inbounds nuw %struct.mbedtls_ecp_keypair, ptr %30, i32 0, i32 2
  %32 = getelementptr inbounds nuw %struct.mbedtls_ecp_point, ptr %31, i32 0, i32 0
  %33 = load ptr, ptr %7, align 8, !tbaa !45
  %34 = getelementptr inbounds nuw %struct.mbedtls_ecp_keypair, ptr %33, i32 0, i32 2
  %35 = getelementptr inbounds nuw %struct.mbedtls_ecp_point, ptr %34, i32 0, i32 0
  %36 = call i32 @mbedtls_mpi_cmp_mpi(ptr noundef %32, ptr noundef %35)
  %37 = icmp ne i32 %36, 0
  br i1 %37, label %56, label %38

38:                                               ; preds = %29
  %39 = load ptr, ptr %6, align 8, !tbaa !45
  %40 = getelementptr inbounds nuw %struct.mbedtls_ecp_keypair, ptr %39, i32 0, i32 2
  %41 = getelementptr inbounds nuw %struct.mbedtls_ecp_point, ptr %40, i32 0, i32 1
  %42 = load ptr, ptr %7, align 8, !tbaa !45
  %43 = getelementptr inbounds nuw %struct.mbedtls_ecp_keypair, ptr %42, i32 0, i32 2
  %44 = getelementptr inbounds nuw %struct.mbedtls_ecp_point, ptr %43, i32 0, i32 1
  %45 = call i32 @mbedtls_mpi_cmp_mpi(ptr noundef %41, ptr noundef %44)
  %46 = icmp ne i32 %45, 0
  br i1 %46, label %56, label %47

47:                                               ; preds = %38
  %48 = load ptr, ptr %6, align 8, !tbaa !45
  %49 = getelementptr inbounds nuw %struct.mbedtls_ecp_keypair, ptr %48, i32 0, i32 2
  %50 = getelementptr inbounds nuw %struct.mbedtls_ecp_point, ptr %49, i32 0, i32 2
  %51 = load ptr, ptr %7, align 8, !tbaa !45
  %52 = getelementptr inbounds nuw %struct.mbedtls_ecp_keypair, ptr %51, i32 0, i32 2
  %53 = getelementptr inbounds nuw %struct.mbedtls_ecp_point, ptr %52, i32 0, i32 2
  %54 = call i32 @mbedtls_mpi_cmp_mpi(ptr noundef %50, ptr noundef %53)
  %55 = icmp ne i32 %54, 0
  br i1 %55, label %56, label %57

56:                                               ; preds = %47, %38, %29, %19, %4
  store i32 -20352, ptr %5, align 4
  store i32 1, ptr %13, align 4
  br label %99

57:                                               ; preds = %47
  call void @mbedtls_ecp_point_init(ptr noundef %11)
  call void @mbedtls_ecp_group_init(ptr noundef %12)
  %58 = load ptr, ptr %7, align 8, !tbaa !45
  %59 = getelementptr inbounds nuw %struct.mbedtls_ecp_keypair, ptr %58, i32 0, i32 0
  %60 = call i32 @mbedtls_ecp_group_copy(ptr noundef %12, ptr noundef %59)
  br label %61

61:                                               ; preds = %57
  %62 = load ptr, ptr %7, align 8, !tbaa !45
  %63 = getelementptr inbounds nuw %struct.mbedtls_ecp_keypair, ptr %62, i32 0, i32 1
  %64 = load ptr, ptr %7, align 8, !tbaa !45
  %65 = getelementptr inbounds nuw %struct.mbedtls_ecp_keypair, ptr %64, i32 0, i32 0
  %66 = getelementptr inbounds nuw %struct.mbedtls_ecp_group, ptr %65, i32 0, i32 4
  %67 = load ptr, ptr %8, align 8, !tbaa !55
  %68 = load ptr, ptr %9, align 8, !tbaa !55
  %69 = call i32 @mbedtls_ecp_mul(ptr noundef %12, ptr noundef %11, ptr noundef %63, ptr noundef %66, ptr noundef %67, ptr noundef %68)
  store i32 %69, ptr %10, align 4, !tbaa !3
  %70 = icmp ne i32 %69, 0
  br i1 %70, label %71, label %72

71:                                               ; preds = %61
  br label %97

72:                                               ; preds = %61
  br label %73

73:                                               ; preds = %72
  br label %74

74:                                               ; preds = %73
  %75 = getelementptr inbounds nuw %struct.mbedtls_ecp_point, ptr %11, i32 0, i32 0
  %76 = load ptr, ptr %7, align 8, !tbaa !45
  %77 = getelementptr inbounds nuw %struct.mbedtls_ecp_keypair, ptr %76, i32 0, i32 2
  %78 = getelementptr inbounds nuw %struct.mbedtls_ecp_point, ptr %77, i32 0, i32 0
  %79 = call i32 @mbedtls_mpi_cmp_mpi(ptr noundef %75, ptr noundef %78)
  %80 = icmp ne i32 %79, 0
  br i1 %80, label %95, label %81

81:                                               ; preds = %74
  %82 = getelementptr inbounds nuw %struct.mbedtls_ecp_point, ptr %11, i32 0, i32 1
  %83 = load ptr, ptr %7, align 8, !tbaa !45
  %84 = getelementptr inbounds nuw %struct.mbedtls_ecp_keypair, ptr %83, i32 0, i32 2
  %85 = getelementptr inbounds nuw %struct.mbedtls_ecp_point, ptr %84, i32 0, i32 1
  %86 = call i32 @mbedtls_mpi_cmp_mpi(ptr noundef %82, ptr noundef %85)
  %87 = icmp ne i32 %86, 0
  br i1 %87, label %95, label %88

88:                                               ; preds = %81
  %89 = getelementptr inbounds nuw %struct.mbedtls_ecp_point, ptr %11, i32 0, i32 2
  %90 = load ptr, ptr %7, align 8, !tbaa !45
  %91 = getelementptr inbounds nuw %struct.mbedtls_ecp_keypair, ptr %90, i32 0, i32 2
  %92 = getelementptr inbounds nuw %struct.mbedtls_ecp_point, ptr %91, i32 0, i32 2
  %93 = call i32 @mbedtls_mpi_cmp_mpi(ptr noundef %89, ptr noundef %92)
  %94 = icmp ne i32 %93, 0
  br i1 %94, label %95, label %96

95:                                               ; preds = %88, %81, %74
  store i32 -20352, ptr %10, align 4, !tbaa !3
  br label %97

96:                                               ; preds = %88
  br label %97

97:                                               ; preds = %96, %95, %71
  call void @mbedtls_ecp_point_free(ptr noundef %11)
  call void @mbedtls_ecp_group_free(ptr noundef %12)
  %98 = load i32, ptr %10, align 4, !tbaa !3
  store i32 %98, ptr %5, align 4
  store i32 1, ptr %13, align 4
  br label %99

99:                                               ; preds = %97, %56
  call void @llvm.lifetime.end.p0(i64 192, ptr %12) #11
  call void @llvm.lifetime.end.p0(i64 48, ptr %11) #11
  call void @llvm.lifetime.end.p0(i64 4, ptr %10) #11
  %100 = load i32, ptr %5, align 4
  ret i32 %100
}