; Function Attrs: nounwind uwtable
define hidden i32 @mbedtls_ecp_check_pub_priv(ptr noundef %0, ptr noundef %1, ptr noundef %2, ptr noundef %3) local_unnamed_addr #7 {
  %5 = alloca %struct.mbedtls_ecp_point, align 8
  %6 = alloca %struct.mbedtls_ecp_group, align 8
  call void @llvm.lifetime.start.p0(i64 48, ptr nonnull %5) #21
  call void @llvm.lifetime.start.p0(i64 192, ptr nonnull %6) #21
  %7 = load i32, ptr %0, align 8, !tbaa !56
  %8 = icmp eq i32 %7, 0
  br i1 %8, label %39, label %9

9:                                                ; preds = %4
  %10 = load i32, ptr %1, align 8, !tbaa !56
  %.not = icmp eq i32 %7, %10
  br i1 %.not, label %11, label %39

11:                                               ; preds = %9
  %12 = getelementptr inbounds nuw i8, ptr %0, i64 208
  %13 = getelementptr inbounds nuw i8, ptr %1, i64 208
  %14 = tail call i32 @mbedtls_mpi_cmp_mpi(ptr noundef nonnull %12, ptr noundef nonnull %13) #21
  %.not21 = icmp eq i32 %14, 0
  br i1 %.not21, label %15, label %39

15:                                               ; preds = %11
  %16 = getelementptr inbounds nuw i8, ptr %0, i64 224
  %17 = getelementptr inbounds nuw i8, ptr %1, i64 224
  %18 = tail call i32 @mbedtls_mpi_cmp_mpi(ptr noundef nonnull %16, ptr noundef nonnull %17) #21
  %.not22 = icmp eq i32 %18, 0
  br i1 %.not22, label %19, label %39

19:                                               ; preds = %15
  %20 = getelementptr inbounds nuw i8, ptr %0, i64 240
  %21 = getelementptr inbounds nuw i8, ptr %1, i64 240
  %22 = tail call i32 @mbedtls_mpi_cmp_mpi(ptr noundef nonnull %20, ptr noundef nonnull %21) #21
  %.not23 = icmp eq i32 %22, 0
  br i1 %.not23, label %23, label %39

23:                                               ; preds = %19
  call void @mbedtls_ecp_point_init(ptr noundef nonnull %5)
  call void @mbedtls_ecp_group_init(ptr noundef nonnull %6)
  %24 = load i32, ptr %1, align 8, !tbaa !27
  %25 = call i32 @mbedtls_ecp_group_load(ptr noundef nonnull %6, i32 noundef %24) #21
  %26 = icmp eq ptr %2, null
  br i1 %26, label %mbedtls_ecp_mul.exit.thread, label %mbedtls_ecp_mul.exit

mbedtls_ecp_mul.exit:                             ; preds = %23
  %27 = getelementptr inbounds nuw i8, ptr %1, i64 56
  %28 = getelementptr inbounds nuw i8, ptr %1, i64 192
  %29 = call fastcc i32 @ecp_mul_restartable_internal(ptr noundef nonnull %6, ptr noundef nonnull %5, ptr noundef nonnull %28, ptr noundef nonnull %27, ptr noundef nonnull %2, ptr noundef %3)
  %.not24 = icmp eq i32 %29, 0
  br i1 %.not24, label %30, label %mbedtls_ecp_mul.exit.thread

30:                                               ; preds = %mbedtls_ecp_mul.exit
  %31 = call i32 @mbedtls_mpi_cmp_mpi(ptr noundef nonnull %5, ptr noundef nonnull %13) #21
  %.not25 = icmp eq i32 %31, 0
  br i1 %.not25, label %32, label %38

32:                                               ; preds = %30
  %33 = getelementptr inbounds nuw i8, ptr %5, i64 16
  %34 = call i32 @mbedtls_mpi_cmp_mpi(ptr noundef nonnull %33, ptr noundef nonnull %17) #21
  %.not26 = icmp eq i32 %34, 0
  br i1 %.not26, label %35, label %38

35:                                               ; preds = %32
  %36 = getelementptr inbounds nuw i8, ptr %5, i64 32
  %37 = call i32 @mbedtls_mpi_cmp_mpi(ptr noundef nonnull %36, ptr noundef nonnull %21) #21
  %.not27 = icmp eq i32 %37, 0
  br i1 %.not27, label %mbedtls_ecp_mul.exit.thread, label %38

38:                                               ; preds = %35, %32, %30
  br label %mbedtls_ecp_mul.exit.thread

mbedtls_ecp_mul.exit.thread:                      ; preds = %23, %35, %mbedtls_ecp_mul.exit, %38
  %.0 = phi i32 [ %29, %mbedtls_ecp_mul.exit ], [ -20352, %38 ], [ 0, %35 ], [ -20352, %23 ]
  call void @mbedtls_ecp_point_free(ptr noundef nonnull %5)
  call void @mbedtls_ecp_group_free(ptr noundef nonnull %6)
  br label %39

39:                                               ; preds = %4, %9, %11, %15, %19, %mbedtls_ecp_mul.exit.thread
  %.018 = phi i32 [ %.0, %mbedtls_ecp_mul.exit.thread ], [ -20352, %19 ], [ -20352, %15 ], [ -20352, %11 ], [ -20352, %9 ], [ -20352, %4 ]
  call void @llvm.lifetime.end.p0(i64 192, ptr nonnull %6) #21
  call void @llvm.lifetime.end.p0(i64 48, ptr nonnull %5) #21
  ret i32 %.018
}